; Function Attrs: nounwind uwtable
define internal noundef ptr @check_pyobject_freed_is_freed(ptr readnone captures(none) %0, ptr readnone captures(none) %1) #0 {
  %3 = tail call ptr @PyObject_CallNoArgs(ptr noundef nonnull @PyBaseObject_Type) #11
  %4 = icmp eq ptr %3, null
  br i1 %4, label %test_pyobject_is_freed.exit, label %5

5:                                                ; preds = %2
  %6 = getelementptr i8, ptr %3, i64 8
  %.val = load ptr, ptr %6, align 8, !tbaa !46
  %7 = getelementptr inbounds nuw i8, ptr %.val, i64 48
  %8 = load ptr, ptr %7, align 8, !tbaa !156
  tail call void %8(ptr noundef nonnull %3) #11
  %9 = load i32, ptr %3, align 8, !tbaa !10
  %.not.i = icmp sgt i32 %9, -1
  br i1 %.not.i, label %10, label %Py_SET_REFCNT.exit

10:                                               ; preds = %5
  store i32 1, ptr %3, align 8, !tbaa !10
  br label %Py_SET_REFCNT.exit

Py_SET_REFCNT.exit:                               ; preds = %5, %10
  %11 = tail call i32 @_PyObject_IsFreed(ptr noundef nonnull %3) #11
  %.not.i7 = icmp eq i32 %11, 0
  br i1 %.not.i7, label %12, label %test_pyobject_is_freed.exit

12:                                               ; preds = %Py_SET_REFCNT.exit
  %13 = load ptr, ptr @PyExc_AssertionError, align 8, !tbaa !9
  tail call void @PyErr_SetString(ptr noundef %13, ptr noundef nonnull @.str.222) #11
  br label %test_pyobject_is_freed.exit

test_pyobject_is_freed.exit:                      ; preds = %12, %Py_SET_REFCNT.exit, %2
  %.0 = phi ptr [ null, %2 ], [ null, %12 ], [ @_Py_NoneStruct, %Py_SET_REFCNT.exit ]
  ret ptr %.0
}